target datalayout = "e-m:e-p270:32:32-p271:32:32-p272:64:64-i64:64-i128:128-f80:128-n8:16:32:64-S128"
target triple = "x86_64-pc-linux-gnu"

%struct.DdManager = type { %struct.DdNode, ptr, ptr, ptr, ptr, ptr, ptr, ptr, i32, i32, double, double, double, i32, i32, i32, i32, i32, i32, ptr, ptr, %struct.DdSubtable, i32, i32, i32, i32, i32, i32, i32, double, i32, i32, i32, ptr, i64, double, i32, ptr, ptr, ptr, ptr, ptr, ptr, ptr, i32, ptr, ptr, ptr, ptr, ptr, ptr, i32, i32, i32, double, i32, i32, i32, i32, double, double, i32, i32, i32, i32, i32, i32, i32, i32, i32, ptr, ptr, i32, i32, i32, i32, i32, i32, ptr, ptr, ptr, ptr, ptr, ptr, ptr, ptr, i32, i64, i64, i64, i32, i64, i64, double, double, double, double, double, double, i32, ptr, ptr, i64 }
%struct.DdNode = type { i32, i32, ptr, %union.anon, i64 }
%union.anon = type { %struct.DdChildren }
%struct.DdChildren = type { ptr, ptr }
%struct.DdSubtable = type { ptr, i32, i32, i32, i32, i32, i32, i32, i32, i32, i32, i32 }

; Function Attrs: nounwind uwtable
define ptr @extraBddReduceVarSet(ptr noundef %0, ptr noundef %1, ptr noundef %2) #0 {
  %4 = alloca ptr, align 8
  %5 = alloca ptr, align 8
  %6 = alloca ptr, align 8
  %7 = alloca ptr, align 8
  %8 = alloca ptr, align 8
  %9 = alloca ptr, align 8
  %10 = alloca i32, align 4
  %11 = alloca ptr, align 8
  %12 = alloca ptr, align 8
  %13 = alloca ptr, align 8
  %14 = alloca ptr, align 8
  %15 = alloca ptr, align 8
  %16 = alloca i32, align 4
  %17 = alloca ptr, align 8
  store ptr %0, ptr %5, align 8, !tbaa !3
  store ptr %1, ptr %6, align 8, !tbaa !8
  store ptr %2, ptr %7, align 8, !tbaa !8
  call void @llvm.lifetime.start.p0(i64 8, ptr %8) #6
  call void @llvm.lifetime.start.p0(i64 8, ptr %9) #6
  %18 = load ptr, ptr %7, align 8, !tbaa !8
  %19 = ptrtoint ptr %18 to i64
  %20 = and i64 %19, -2
  %21 = inttoptr i64 %20 to ptr
  store ptr %21, ptr %9, align 8, !tbaa !8
  %22 = load ptr, ptr %9, align 8, !tbaa !8
  %23 = getelementptr inbounds nuw %struct.DdNode, ptr %22, i32 0, i32 0
  %24 = load i32, ptr %23, align 8, !tbaa !39
  %25 = icmp eq i32 %24, 2147483647
  br i1 %25, label %32, label %26

26:                                               ; preds = %3
  %27 = load ptr, ptr %6, align 8, !tbaa !8
  %28 = load ptr, ptr %5, align 8, !tbaa !3
  %29 = getelementptr inbounds nuw %struct.DdManager, ptr %28, i32 0, i32 1
  %30 = load ptr, ptr %29, align 8, !tbaa !38
  %31 = icmp eq ptr %27, %30
  br i1 %31, label %32, label %34

32:                                               ; preds = %26, %3
  %33 = load ptr, ptr %6, align 8, !tbaa !8
  store ptr %33, ptr %4, align 8
  store i32 1, ptr %10, align 4
  br label %236

34:                                               ; preds = %26
  %35 = load ptr, ptr %5, align 8, !tbaa !3
  %36 = load ptr, ptr %6, align 8, !tbaa !8
  %37 = load ptr, ptr %7, align 8, !tbaa !8
  %38 = call ptr @cuddCacheLookup2(ptr noundef %35, ptr noundef @extraBddReduceVarSet, ptr noundef %36, ptr noundef %37)
  store ptr %38, ptr %8, align 8, !tbaa !8
  %39 = icmp ne ptr %38, null
  br i1 %39, label %40, label %42

40:                                               ; preds = %34
  %41 = load ptr, ptr %8, align 8, !tbaa !8
  store ptr %41, ptr %4, align 8
  store i32 1, ptr %10, align 4
  br label %236

42:                                               ; preds = %34
  call void @llvm.lifetime.start.p0(i64 8, ptr %11) #6
  call void @llvm.lifetime.start.p0(i64 8, ptr %12) #6
  call void @llvm.lifetime.start.p0(i64 8, ptr %13) #6
  call void @llvm.lifetime.start.p0(i64 8, ptr %14) #6
  call void @llvm.lifetime.start.p0(i64 8, ptr %15) #6
  call void @llvm.lifetime.start.p0(i64 4, ptr %16) #6
  %43 = load ptr, ptr %5, align 8, !tbaa !3
  %44 = getelementptr inbounds nuw %struct.DdManager, ptr %43, i32 0, i32 37
  %45 = load ptr, ptr %44, align 8, !tbaa !49
  %46 = load ptr, ptr %9, align 8, !tbaa !8
  %47 = getelementptr inbounds nuw %struct.DdNode, ptr %46, i32 0, i32 0
  %48 = load i32, ptr %47, align 8, !tbaa !39
  %49 = zext i32 %48 to i64
  %50 = getelementptr inbounds nuw i32, ptr %45, i64 %49
  %51 = load i32, ptr %50, align 4, !tbaa !31
  store i32 %51, ptr %16, align 4, !tbaa !31
  %52 = load ptr, ptr %6, align 8, !tbaa !8
  store ptr %52, ptr %13, align 8, !tbaa !8
  br label %53

53:                                               ; preds = %77, %42
  %54 = load i32, ptr %16, align 4, !tbaa !31
  %55 = load ptr, ptr %13, align 8, !tbaa !8
  %56 = getelementptr inbounds nuw %struct.DdNode, ptr %55, i32 0, i32 0
  %57 = load i32, ptr %56, align 8, !tbaa !39
  %58 = icmp eq i32 %57, 2147483647
  br i1 %58, label %59, label %63

59:                                               ; preds = %53
  %60 = load ptr, ptr %13, align 8, !tbaa !8
  %61 = getelementptr inbounds nuw %struct.DdNode, ptr %60, i32 0, i32 0
  %62 = load i32, ptr %61, align 8, !tbaa !39
  br label %73

63:                                               ; preds = %53
  %64 = load ptr, ptr %5, align 8, !tbaa !3
  %65 = getelementptr inbounds nuw %struct.DdManager, ptr %64, i32 0, i32 37
  %66 = load ptr, ptr %65, align 8, !tbaa !49
  %67 = load ptr, ptr %13, align 8, !tbaa !8
  %68 = getelementptr inbounds nuw %struct.DdNode, ptr %67, i32 0, i32 0
  %69 = load i32, ptr %68, align 8, !tbaa !39
  %70 = zext i32 %69 to i64
  %71 = getelementptr inbounds nuw i32, ptr %66, i64 %70
  %72 = load i32, ptr %71, align 4, !tbaa !31
  br label %73

73:                                               ; preds = %63, %59
  %74 = phi i32 [ %62, %59 ], [ %72, %63 ]
  %75 = icmp sgt i32 %54, %74
  br i1 %75, label %76, label %82

76:                                               ; preds = %73
  br label %77

77:                                               ; preds = %76
  %78 = load ptr, ptr %13, align 8, !tbaa !8
  %79 = getelementptr inbounds nuw %struct.DdNode, ptr %78, i32 0, i32 3
  %80 = getelementptr inbounds nuw %struct.DdChildren, ptr %79, i32 0, i32 0
  %81 = load ptr, ptr %80, align 8, !tbaa !41
  store ptr %81, ptr %13, align 8, !tbaa !8
  br label %53, !llvm.loop !57

82:                                               ; preds = %73
  %83 = load i32, ptr %16, align 4, !tbaa !31
  %84 = load ptr, ptr %13, align 8, !tbaa !8
  %85 = getelementptr inbounds nuw %struct.DdNode, ptr %84, i32 0, i32 0
  %86 = load i32, ptr %85, align 8, !tbaa !39
  %87 = icmp eq i32 %86, 2147483647
  br i1 %87, label %88, label %92

88:                                               ; preds = %82
  %89 = load ptr, ptr %13, align 8, !tbaa !8
  %90 = getelementptr inbounds nuw %struct.DdNode, ptr %89, i32 0, i32 0
  %91 = load i32, ptr %90, align 8, !tbaa !39
  br label %102

92:                                               ; preds = %82
  %93 = load ptr, ptr %5, align 8, !tbaa !3
  %94 = getelementptr inbounds nuw %struct.DdManager, ptr %93, i32 0, i32 37
  %95 = load ptr, ptr %94, align 8, !tbaa !49
  %96 = load ptr, ptr %13, align 8, !tbaa !8
  %97 = getelementptr inbounds nuw %struct.DdNode, ptr %96, i32 0, i32 0
  %98 = load i32, ptr %97, align 8, !tbaa !39
  %99 = zext i32 %98 to i64
  %100 = getelementptr inbounds nuw i32, ptr %95, i64 %99
  %101 = load i32, ptr %100, align 4, !tbaa !31
  br label %102

102:                                              ; preds = %92, %88
  %103 = phi i32 [ %91, %88 ], [ %101, %92 ]
  %104 = icmp eq i32 %83, %103
  br i1 %104, label %105, label %110

105:                                              ; preds = %102
  %106 = load ptr, ptr %13, align 8, !tbaa !8
  %107 = getelementptr inbounds nuw %struct.DdNode, ptr %106, i32 0, i32 3
  %108 = getelementptr inbounds nuw %struct.DdChildren, ptr %107, i32 0, i32 0
  %109 = load ptr, ptr %108, align 8, !tbaa !41
  store ptr %109, ptr %14, align 8, !tbaa !8
  br label %112

110:                                              ; preds = %102
  %111 = load ptr, ptr %13, align 8, !tbaa !8
  store ptr %111, ptr %14, align 8, !tbaa !8
  br label %112

112:                                              ; preds = %110, %105
  %113 = load ptr, ptr %9, align 8, !tbaa !8
  %114 = load ptr, ptr %7, align 8, !tbaa !8
  %115 = icmp ne ptr %113, %114
  br i1 %115, label %116, label %131

116:                                              ; preds = %112
  %117 = load ptr, ptr %9, align 8, !tbaa !8
  %118 = getelementptr inbounds nuw %struct.DdNode, ptr %117, i32 0, i32 3
  %119 = getelementptr inbounds nuw %struct.DdChildren, ptr %118, i32 0, i32 1
  %120 = load ptr, ptr %119, align 8, !tbaa !41
  %121 = ptrtoint ptr %120 to i64
  %122 = xor i64 %121, 1
  %123 = inttoptr i64 %122 to ptr
  store ptr %123, ptr %11, align 8, !tbaa !8
  %124 = load ptr, ptr %9, align 8, !tbaa !8
  %125 = getelementptr inbounds nuw %struct.DdNode, ptr %124, i32 0, i32 3
  %126 = getelementptr inbounds nuw %struct.DdChildren, ptr %125, i32 0, i32 0
  %127 = load ptr, ptr %126, align 8, !tbaa !41
  %128 = ptrtoint ptr %127 to i64
  %129 = xor i64 %128, 1
  %130 = inttoptr i64 %129 to ptr
  store ptr %130, ptr %12, align 8, !tbaa !8
  br label %140

131:                                              ; preds = %112
  %132 = load ptr, ptr %9, align 8, !tbaa !8
  %133 = getelementptr inbounds nuw %struct.DdNode, ptr %132, i32 0, i32 3
  %134 = getelementptr inbounds nuw %struct.DdChildren, ptr %133, i32 0, i32 1
  %135 = load ptr, ptr %134, align 8, !tbaa !41
  store ptr %135, ptr %11, align 8, !tbaa !8
  %136 = load ptr, ptr %9, align 8, !tbaa !8
  %137 = getelementptr inbounds nuw %struct.DdNode, ptr %136, i32 0, i32 3
  %138 = getelementptr inbounds nuw %struct.DdChildren, ptr %137, i32 0, i32 0
  %139 = load ptr, ptr %138, align 8, !tbaa !41
  store ptr %139, ptr %12, align 8, !tbaa !8
  br label %140

140:                                              ; preds = %131, %116
  %141 = load ptr, ptr %5, align 8, !tbaa !3
  %142 = load ptr, ptr %14, align 8, !tbaa !8
  %143 = load ptr, ptr %11, align 8, !tbaa !8
  %144 = call ptr @extraBddReduceVarSet(ptr noundef %141, ptr noundef %142, ptr noundef %143)
  store ptr %144, ptr %8, align 8, !tbaa !8
  %145 = load ptr, ptr %8, align 8, !tbaa !8
  %146 = icmp eq ptr %145, null
  br i1 %146, label %147, label %148

147:                                              ; preds = %140
  store ptr null, ptr %4, align 8
  store i32 1, ptr %10, align 4
  br label %235

148:                                              ; preds = %140
  %149 = load ptr, ptr %8, align 8, !tbaa !8
  %150 = ptrtoint ptr %149 to i64
  %151 = and i64 %150, -2
  %152 = inttoptr i64 %151 to ptr
  %153 = getelementptr inbounds nuw %struct.DdNode, ptr %152, i32 0, i32 1
  %154 = load i32, ptr %153, align 4, !tbaa !51
  %155 = add i32 %154, 1
  store i32 %155, ptr %153, align 4, !tbaa !51
  %156 = load ptr, ptr %5, align 8, !tbaa !3
  %157 = load ptr, ptr %8, align 8, !tbaa !8
  store ptr %157, ptr %15, align 8, !tbaa !8
  %158 = load ptr, ptr %12, align 8, !tbaa !8
  %159 = call ptr @extraBddReduceVarSet(ptr noundef %156, ptr noundef %157, ptr noundef %158)
  store ptr %159, ptr %8, align 8, !tbaa !8
  %160 = load ptr, ptr %8, align 8, !tbaa !8
  %161 = icmp eq ptr %160, null
  br i1 %161, label %162, label %165

162:                                              ; preds = %148
  %163 = load ptr, ptr %5, align 8, !tbaa !3
  %164 = load ptr, ptr %15, align 8, !tbaa !8
  call void @Cudd_RecursiveDeref(ptr noundef %163, ptr noundef %164)
  store ptr null, ptr %4, align 8
  store i32 1, ptr %10, align 4
  br label %235

165:                                              ; preds = %148
  %166 = load ptr, ptr %8, align 8, !tbaa !8
  %167 = ptrtoint ptr %166 to i64
  %168 = and i64 %167, -2
  %169 = inttoptr i64 %168 to ptr
  %170 = getelementptr inbounds nuw %struct.DdNode, ptr %169, i32 0, i32 1
  %171 = load i32, ptr %170, align 4, !tbaa !51
  %172 = add i32 %171, 1
  store i32 %172, ptr %170, align 4, !tbaa !51
  %173 = load ptr, ptr %5, align 8, !tbaa !3
  %174 = load ptr, ptr %15, align 8, !tbaa !8
  call void @Cudd_RecursiveDeref(ptr noundef %173, ptr noundef %174)
  %175 = load ptr, ptr %13, align 8, !tbaa !8
  %176 = load ptr, ptr %6, align 8, !tbaa !8
  %177 = icmp ne ptr %175, %176
  br i1 %177, label %178, label %222

178:                                              ; preds = %165
  call void @llvm.lifetime.start.p0(i64 8, ptr %17) #6
  %179 = load ptr, ptr %5, align 8, !tbaa !3
  %180 = load ptr, ptr %6, align 8, !tbaa !8
  %181 = load ptr, ptr %13, align 8, !tbaa !8
  %182 = call ptr @cuddBddExistAbstractRecur(ptr noundef %179, ptr noundef %180, ptr noundef %181)
  store ptr %182, ptr %17, align 8, !tbaa !8
  %183 = load ptr, ptr %17, align 8, !tbaa !8
  %184 = icmp eq ptr %183, null
  br i1 %184, label %185, label %188

185:                                              ; preds = %178
  %186 = load ptr, ptr %5, align 8, !tbaa !3
  %187 = load ptr, ptr %8, align 8, !tbaa !8
  call void @Cudd_RecursiveDeref(ptr noundef %186, ptr noundef %187)
  store ptr null, ptr %4, align 8
  store i32 1, ptr %10, align 4
  br label %219

188:                                              ; preds = %178
  %189 = load ptr, ptr %17, align 8, !tbaa !8
  %190 = ptrtoint ptr %189 to i64
  %191 = and i64 %190, -2
  %192 = inttoptr i64 %191 to ptr
  %193 = getelementptr inbounds nuw %struct.DdNode, ptr %192, i32 0, i32 1
  %194 = load i32, ptr %193, align 4, !tbaa !51
  %195 = add i32 %194, 1
  store i32 %195, ptr %193, align 4, !tbaa !51
  %196 = load ptr, ptr %5, align 8, !tbaa !3
  %197 = load ptr, ptr %8, align 8, !tbaa !8
  store ptr %197, ptr %15, align 8, !tbaa !8
  %198 = load ptr, ptr %17, align 8, !tbaa !8
  %199 = call ptr @cuddBddAndRecur(ptr noundef %196, ptr noundef %197, ptr noundef %198)
  store ptr %199, ptr %8, align 8, !tbaa !8
  %200 = load ptr, ptr %8, align 8, !tbaa !8
  %201 = icmp eq ptr %200, null
  br i1 %201, label %202, label %207

202:                                              ; preds = %188
  %203 = load ptr, ptr %5, align 8, !tbaa !3
  %204 = load ptr, ptr %15, align 8, !tbaa !8
  call void @Cudd_RecursiveDeref(ptr noundef %203, ptr noundef %204)
  %205 = load ptr, ptr %5, align 8, !tbaa !3
  %206 = load ptr, ptr %17, align 8, !tbaa !8
  call void @Cudd_RecursiveDeref(ptr noundef %205, ptr noundef %206)
  store ptr null, ptr %4, align 8
  store i32 1, ptr %10, align 4
  br label %219

207:                                              ; preds = %188
  %208 = load ptr, ptr %8, align 8, !tbaa !8
  %209 = ptrtoint ptr %208 to i64
  %210 = and i64 %209, -2
  %211 = inttoptr i64 %210 to ptr
  %212 = getelementptr inbounds nuw %struct.DdNode, ptr %211, i32 0, i32 1
  %213 = load i32, ptr %212, align 4, !tbaa !51
  %214 = add i32 %213, 1
  store i32 %214, ptr %212, align 4, !tbaa !51
  %215 = load ptr, ptr %5, align 8, !tbaa !3
  %216 = load ptr, ptr %15, align 8, !tbaa !8
  call void @Cudd_RecursiveDeref(ptr noundef %215, ptr noundef %216)
  %217 = load ptr, ptr %5, align 8, !tbaa !3
  %218 = load ptr, ptr %17, align 8, !tbaa !8
  call void @Cudd_RecursiveDeref(ptr noundef %217, ptr noundef %218)
  store i32 0, ptr %10, align 4
  br label %219

219:                                              ; preds = %207, %202, %185
  call void @llvm.lifetime.end.p0(i64 8, ptr %17) #6
  %220 = load i32, ptr %10, align 4
  switch i32 %220, label %235 [
    i32 0, label %221
  ]

221:                                              ; preds = %219
  br label %222

222:                                              ; preds = %221, %165
  %223 = load ptr, ptr %8, align 8, !tbaa !8
  %224 = ptrtoint ptr %223 to i64
  %225 = and i64 %224, -2
  %226 = inttoptr i64 %225 to ptr
  %227 = getelementptr inbounds nuw %struct.DdNode, ptr %226, i32 0, i32 1
  %228 = load i32, ptr %227, align 4, !tbaa !51
  %229 = add i32 %228, -1
  store i32 %229, ptr %227, align 4, !tbaa !51
  %230 = load ptr, ptr %5, align 8, !tbaa !3
  %231 = load ptr, ptr %6, align 8, !tbaa !8
  %232 = load ptr, ptr %7, align 8, !tbaa !8
  %233 = load ptr, ptr %8, align 8, !tbaa !8
  call void @cuddCacheInsert2(ptr noundef %230, ptr noundef @extraBddReduceVarSet, ptr noundef %231, ptr noundef %232, ptr noundef %233)
  %234 = load ptr, ptr %8, align 8, !tbaa !8
  store ptr %234, ptr %4, align 8
  store i32 1, ptr %10, align 4
  br label %235

235:                                              ; preds = %222, %219, %162, %147
  call void @llvm.lifetime.end.p0(i64 4, ptr %16) #6
  call void @llvm.lifetime.end.p0(i64 8, ptr %15) #6
  call void @llvm.lifetime.end.p0(i64 8, ptr %14) #6
  call void @llvm.lifetime.end.p0(i64 8, ptr %13) #6
  call void @llvm.lifetime.end.p0(i64 8, ptr %12) #6
  call void @llvm.lifetime.end.p0(i64 8, ptr %11) #6
  br label %236

236:                                              ; preds = %235, %40, %32
  call void @llvm.lifetime.end.p0(i64 8, ptr %9) #6
  call void @llvm.lifetime.end.p0(i64 8, ptr %8) #6
  %237 = load ptr, ptr %4, align 8
  ret ptr %237
}