; Function Attrs: nounwind uwtable
define ptr @extraBddReduceVarSet(ptr noundef %0, ptr noundef %1, ptr noundef %2) #0 {
  %4 = ptrtoint ptr %2 to i64
  %5 = and i64 %4, -2
  %6 = inttoptr i64 %5 to ptr
  %7 = load i32, ptr %6, align 8, !tbaa !36
  %8 = icmp eq i32 %7, 2147483647
  br i1 %8, label %.thread98, label %9

9:                                                ; preds = %3
  %10 = getelementptr inbounds nuw i8, ptr %0, i64 40
  %11 = load ptr, ptr %10, align 8, !tbaa !35
  %12 = icmp eq ptr %1, %11
  br i1 %12, label %.thread98, label %13

13:                                               ; preds = %9
  %14 = tail call ptr @cuddCacheLookup2(ptr noundef nonnull %0, ptr noundef nonnull @extraBddReduceVarSet, ptr noundef %1, ptr noundef %2) #10
  %.not = icmp eq ptr %14, null
  br i1 %.not, label %15, label %.thread98

15:                                               ; preds = %13
  %16 = getelementptr inbounds nuw i8, ptr %0, i64 312
  %17 = load ptr, ptr %16, align 8, !tbaa !45
  %18 = load i32, ptr %6, align 8, !tbaa !36
  %19 = zext i32 %18 to i64
  %20 = getelementptr inbounds nuw i32, ptr %17, i64 %19
  %21 = load i32, ptr %20, align 4, !tbaa !37
  %22 = load i32, ptr %1, align 8, !tbaa !36
  %23 = icmp eq i32 %22, 2147483647
  br i1 %23, label %.thread97, label %.lr.ph

.lr.ph:                                           ; preds = %15, %29
  %24 = phi i32 [ %32, %29 ], [ %22, %15 ]
  %.077104 = phi ptr [ %31, %29 ], [ %1, %15 ]
  %25 = zext i32 %24 to i64
  %26 = getelementptr inbounds nuw i32, ptr %17, i64 %25
  %27 = load i32, ptr %26, align 4, !tbaa !37
  %28 = icmp sgt i32 %21, %27
  br i1 %28, label %29, label %.thread97

29:                                               ; preds = %.lr.ph
  %30 = getelementptr inbounds nuw i8, ptr %.077104, i64 16
  %31 = load ptr, ptr %30, align 8, !tbaa !38
  %32 = load i32, ptr %31, align 8, !tbaa !36
  %33 = icmp eq i32 %32, 2147483647
  br i1 %33, label %.thread97, label %.lr.ph, !llvm.loop !53

.thread97:                                        ; preds = %29, %.lr.ph, %15
  %.077103 = phi ptr [ %1, %15 ], [ %31, %29 ], [ %.077104, %.lr.ph ]
  %34 = phi i32 [ 2147483647, %15 ], [ 2147483647, %29 ], [ %27, %.lr.ph ]
  %35 = icmp eq i32 %21, %34
  br i1 %35, label %36, label %39

36:                                               ; preds = %.thread97
  %37 = getelementptr inbounds nuw i8, ptr %.077103, i64 16
  %38 = load ptr, ptr %37, align 8, !tbaa !38
  br label %39

39:                                               ; preds = %.thread97, %36
  %.076 = phi ptr [ %38, %36 ], [ %.077103, %.thread97 ]
  %.not95 = icmp eq ptr %2, %6
  %40 = getelementptr inbounds nuw i8, ptr %6, i64 16
  %41 = getelementptr inbounds nuw i8, ptr %6, i64 24
  %42 = load ptr, ptr %41, align 8, !tbaa !38
  br i1 %.not95, label %51, label %43

43:                                               ; preds = %39
  %44 = ptrtoint ptr %42 to i64
  %45 = xor i64 %44, 1
  %46 = inttoptr i64 %45 to ptr
  %47 = load ptr, ptr %40, align 8, !tbaa !38
  %48 = ptrtoint ptr %47 to i64
  %49 = xor i64 %48, 1
  %50 = inttoptr i64 %49 to ptr
  br label %53

51:                                               ; preds = %39
  %52 = load ptr, ptr %40, align 8, !tbaa !38
  br label %53

53:                                               ; preds = %51, %43
  %.079 = phi ptr [ %46, %43 ], [ %42, %51 ]
  %.078 = phi ptr [ %50, %43 ], [ %52, %51 ]
  %54 = tail call ptr @extraBddReduceVarSet(ptr noundef nonnull %0, ptr noundef %.076, ptr noundef %.079)
  %55 = icmp eq ptr %54, null
  br i1 %55, label %.thread98, label %56

56:                                               ; preds = %53
  %57 = ptrtoint ptr %54 to i64
  %58 = and i64 %57, -2
  %59 = inttoptr i64 %58 to ptr
  %60 = getelementptr inbounds nuw i8, ptr %59, i64 4
  %61 = load i32, ptr %60, align 4, !tbaa !47
  %62 = add i32 %61, 1
  store i32 %62, ptr %60, align 4, !tbaa !47
  %63 = tail call ptr @extraBddReduceVarSet(ptr noundef nonnull %0, ptr noundef nonnull %54, ptr noundef %.078)
  %64 = icmp eq ptr %63, null
  br i1 %64, label %65, label %66

65:                                               ; preds = %56
  tail call void @Cudd_RecursiveDeref(ptr noundef nonnull %0, ptr noundef nonnull %54) #10
  br label %.thread98

66:                                               ; preds = %56
  %67 = ptrtoint ptr %63 to i64
  %68 = and i64 %67, -2
  %69 = inttoptr i64 %68 to ptr
  %70 = getelementptr inbounds nuw i8, ptr %69, i64 4
  %71 = load i32, ptr %70, align 4, !tbaa !47
  %72 = add i32 %71, 1
  store i32 %72, ptr %70, align 4, !tbaa !47
  tail call void @Cudd_RecursiveDeref(ptr noundef nonnull %0, ptr noundef nonnull %54) #10
  %.not96 = icmp eq ptr %.077103, %1
  br i1 %.not96, label %94, label %73

73:                                               ; preds = %66
  %74 = tail call ptr @cuddBddExistAbstractRecur(ptr noundef nonnull %0, ptr noundef nonnull %1, ptr noundef nonnull %.077103) #10
  %75 = icmp eq ptr %74, null
  br i1 %75, label %76, label %77

76:                                               ; preds = %73
  tail call void @Cudd_RecursiveDeref(ptr noundef nonnull %0, ptr noundef nonnull %63) #10
  br label %.thread98

77:                                               ; preds = %73
  %78 = ptrtoint ptr %74 to i64
  %79 = and i64 %78, -2
  %80 = inttoptr i64 %79 to ptr
  %81 = getelementptr inbounds nuw i8, ptr %80, i64 4
  %82 = load i32, ptr %81, align 4, !tbaa !47
  %83 = add i32 %82, 1
  store i32 %83, ptr %81, align 4, !tbaa !47
  %84 = tail call ptr @cuddBddAndRecur(ptr noundef nonnull %0, ptr noundef nonnull %63, ptr noundef nonnull %74) #10
  %85 = icmp eq ptr %84, null
  br i1 %85, label %86, label %87

86:                                               ; preds = %77
  tail call void @Cudd_RecursiveDeref(ptr noundef nonnull %0, ptr noundef nonnull %63) #10
  tail call void @Cudd_RecursiveDeref(ptr noundef nonnull %0, ptr noundef nonnull %74) #10
  br label %.thread98

87:                                               ; preds = %77
  %88 = ptrtoint ptr %84 to i64
  %89 = and i64 %88, -2
  %90 = inttoptr i64 %89 to ptr
  %91 = getelementptr inbounds nuw i8, ptr %90, i64 4
  %92 = load i32, ptr %91, align 4, !tbaa !47
  %93 = add i32 %92, 1
  store i32 %93, ptr %91, align 4, !tbaa !47
  tail call void @Cudd_RecursiveDeref(ptr noundef nonnull %0, ptr noundef nonnull %63) #10
  tail call void @Cudd_RecursiveDeref(ptr noundef nonnull %0, ptr noundef nonnull %74) #10
  br label %94

94:                                               ; preds = %87, %66
  %.pre-phi109 = phi ptr [ %90, %87 ], [ %69, %66 ]
  %.074 = phi ptr [ %84, %87 ], [ %63, %66 ]
  %95 = getelementptr inbounds nuw i8, ptr %.pre-phi109, i64 4
  %96 = load i32, ptr %95, align 4, !tbaa !47
  %97 = add i32 %96, -1
  store i32 %97, ptr %95, align 4, !tbaa !47
  tail call void @cuddCacheInsert2(ptr noundef nonnull %0, ptr noundef nonnull @extraBddReduceVarSet, ptr noundef nonnull %1, ptr noundef %2, ptr noundef nonnull %.074) #10
  br label %.thread98

.thread98:                                        ; preds = %86, %76, %65, %94, %53, %13, %3, %9
  %.0 = phi ptr [ %1, %9 ], [ %1, %3 ], [ %14, %13 ], [ null, %65 ], [ %.074, %94 ], [ null, %53 ], [ null, %76 ], [ null, %86 ]
  ret ptr %.0
}